target datalayout = "e-m:e-p270:32:32-p271:32:32-p272:64:64-i64:64-i128:128-f80:128-n8:16:32:64-S128"
target triple = "x86_64-unknown-linux-gnu"

%"class.sat::literal" = type { i32 }
%"class.sat::drat" = type { ptr, %class.svector, ptr, %"class.sat::clause_allocator", ptr, ptr, %class.svector.5, %class.svector.7, %class.vector.9, %class.svector.10, i8, i8, i8, i8, i8, %"struct.sat::drat::stats" }
%class.svector = type { %class.vector }
%class.vector = type { ptr }
%"class.sat::clause_allocator" = type { %class.sat_allocator, %class.id_gen }
%class.sat_allocator = type { ptr, i64, %class.ptr_vector, ptr, [65 x %class.ptr_vector.1] }
%class.ptr_vector = type { %class.vector.0 }
%class.vector.0 = type { ptr }
%class.ptr_vector.1 = type { %class.vector.2 }
%class.vector.2 = type { ptr }
%class.id_gen = type { i32, %class.svector.3 }
%class.svector.3 = type { %class.vector.4 }
%class.vector.4 = type { ptr }
%class.svector.5 = type { %class.vector.6 }
%class.vector.6 = type { ptr }
%class.svector.7 = type { %class.vector.8 }
%class.vector.8 = type { ptr }
%class.vector.9 = type { ptr }
%class.svector.10 = type { %class.vector.11 }
%class.vector.11 = type { ptr }
%"struct.sat::drat::stats" = type { i32, i32, i32, i32 }
%"class.sat::status" = type { i32, i32, ptr }

; Function Attrs: mustprogress nounwind uwtable
define linkonce_odr hidden noundef zeroext i1 @_ZNK3sat7literal4signEv(ptr noundef nonnull align 4 dereferenceable(4) %this) #4 comdat align 2 {
entry:
  %this.addr = alloca ptr, align 8
  store ptr %this, ptr %this.addr, align 8
  %this1 = load ptr, ptr %this.addr, align 8
  %m_val = getelementptr inbounds %"class.sat::literal", ptr %this1, i32 0, i32 0
  %0 = load i32, ptr %m_val, align 4
  %conv = zext i32 %0 to i64
  %and = and i64 %conv, 1
  %tobool = icmp ne i64 %and, 0
  ret i1 %tobool
}

; Function Attrs: mustprogress nounwind uwtable
define linkonce_odr hidden noundef i32 @_ZNK3sat7literal3varEv(ptr noundef nonnull align 4 dereferenceable(4) %this) #4 comdat align 2 {
entry:
  %this.addr = alloca ptr, align 8
  store ptr %this, ptr %this.addr, align 8
  %this1 = load ptr, ptr %this.addr, align 8
  %m_val = getelementptr inbounds %"class.sat::literal", ptr %this1, i32 0, i32 0
  %0 = load i32, ptr %m_val, align 4
  %shr = lshr i32 %0, 1
  ret i32 %shr
}

; Function Attrs: mustprogress nounwind uwtable
define linkonce_odr hidden noundef zeroext i1 @_ZNK3sat6status10is_deletedEv(ptr noundef nonnull align 8 dereferenceable(16) %this) #4 comdat align 2 {
entry:
  %this.addr = alloca ptr, align 8
  store ptr %this, ptr %this.addr, align 8
  %this1 = load ptr, ptr %this.addr, align 8
  %m_st = getelementptr inbounds %"class.sat::status", ptr %this1, i32 0, i32 0
  %0 = load i32, ptr %m_st, align 8
  %cmp = icmp eq i32 3, %0
  ret i1 %cmp
}

; Function Attrs: mustprogress nounwind uwtable
define linkonce_odr hidden noundef zeroext i1 @_ZNK3sat6status12is_redundantEv(ptr noundef nonnull align 8 dereferenceable(16) %this) #4 comdat align 2 {
entry:
  %this.addr = alloca ptr, align 8
  store ptr %this, ptr %this.addr, align 8
  %this1 = load ptr, ptr %this.addr, align 8
  %m_st = getelementptr inbounds %"class.sat::status", ptr %this1, i32 0, i32 0
  %0 = load i32, ptr %m_st, align 8
  %cmp = icmp eq i32 2, %0
  ret i1 %cmp
}

; Function Attrs: mustprogress nounwind uwtable
define linkonce_odr hidden void @_ZN3sat6statusC2ENS0_2stEiPKNS_10proof_hintE(ptr noundef nonnull align 8 dereferenceable(16) %this, i32 noundef %s, i32 noundef %o, ptr noundef %ps) unnamed_addr #4 comdat align 2 {
entry:
  %this.addr = alloca ptr, align 8
  %s.addr = alloca i32, align 4
  %o.addr = alloca i32, align 4
  %ps.addr = alloca ptr, align 8
  store ptr %this, ptr %this.addr, align 8
  store i32 %s, ptr %s.addr, align 4
  store i32 %o, ptr %o.addr, align 4
  store ptr %ps, ptr %ps.addr, align 8
  %this1 = load ptr, ptr %this.addr, align 8
  %m_st = getelementptr inbounds %"class.sat::status", ptr %this1, i32 0, i32 0
  %0 = load i32, ptr %s.addr, align 4
  store i32 %0, ptr %m_st, align 8
  %m_orig = getelementptr inbounds %"class.sat::status", ptr %this1, i32 0, i32 1
  %1 = load i32, ptr %o.addr, align 4
  store i32 %1, ptr %m_orig, align 4
  %m_hint = getelementptr inbounds %"class.sat::status", ptr %this1, i32 0, i32 2
  %2 = load ptr, ptr %ps.addr, align 8
  store ptr %2, ptr %m_hint, align 8
  ret void
}

; Function Attrs: mustprogress uwtable
define hidden void @_ZN3sat4drat5bdumpEjPKNS_7literalENS_6statusE(ptr noundef nonnull align 8 dereferenceable(664) %this, i32 noundef %n, ptr noundef %c, ptr noundef %st) #5 align 2 {
entry:
  %this.addr = alloca ptr, align 8
  %n.addr = alloca i32, align 4
  %c.addr = alloca ptr, align 8
  %st.indirect_addr = alloca ptr, align 8
  %ch = alloca i8, align 1
  %buffer = alloca [10000 x i8], align 16
  %len = alloca i32, align 4
  %i = alloca i32, align 4
  %lit = alloca %"class.sat::literal", align 4
  %v = alloca i32, align 4
  store ptr %this, ptr %this.addr, align 8
  store i32 %n, ptr %n.addr, align 4
  store ptr %c, ptr %c.addr, align 8
  store ptr %st, ptr %st.indirect_addr, align 8
  %this1 = load ptr, ptr %this.addr, align 8
  store i8 0, ptr %ch, align 1
  %call = call noundef zeroext i1 @_ZNK3sat6status12is_redundantEv(ptr noundef nonnull align 8 dereferenceable(16) %st)
  br i1 %call, label %if.then, label %if.else

if.then:                                          ; preds = %entry
  store i8 97, ptr %ch, align 1
  br label %if.end5

if.else:                                          ; preds = %entry
  %call2 = call noundef zeroext i1 @_ZNK3sat6status10is_deletedEv(ptr noundef nonnull align 8 dereferenceable(16) %st)
  br i1 %call2, label %if.then3, label %if.else4

if.then3:                                         ; preds = %if.else
  store i8 100, ptr %ch, align 1
  br label %if.end

if.else4:                                         ; preds = %if.else
  br label %return

if.end:                                           ; preds = %if.then3
  br label %if.end5

if.end5:                                          ; preds = %if.end, %if.then
  store i32 0, ptr %len, align 4
  %0 = load i8, ptr %ch, align 1
  %1 = load i32, ptr %len, align 4
  %inc = add nsw i32 %1, 1
  store i32 %inc, ptr %len, align 4
  %idxprom = sext i32 %1 to i64
  %arrayidx = getelementptr inbounds [10000 x i8], ptr %buffer, i64 0, i64 %idxprom
  store i8 %0, ptr %arrayidx, align 1
  store i32 0, ptr %i, align 4
  br label %for.cond

for.cond:                                         ; preds = %for.inc, %if.end5
  %2 = load i32, ptr %i, align 4
  %3 = load i32, ptr %n.addr, align 4
  %cmp = icmp ult i32 %2, %3
  br i1 %cmp, label %for.body, label %for.end

for.body:                                         ; preds = %for.cond
  %4 = load ptr, ptr %c.addr, align 8
  %5 = load i32, ptr %i, align 4
  %idxprom6 = zext i32 %5 to i64
  %arrayidx7 = getelementptr inbounds %"class.sat::literal", ptr %4, i64 %idxprom6
  call void @llvm.memcpy.p0.p0.i64(ptr align 4 %lit, ptr align 4 %arrayidx7, i64 4, i1 false)
  %call8 = call noundef i32 @_ZNK3sat7literal3varEv(ptr noundef nonnull align 4 dereferenceable(4) %lit)
  %mul = mul i32 2, %call8
  %call9 = call noundef zeroext i1 @_ZNK3sat7literal4signEv(ptr noundef nonnull align 4 dereferenceable(4) %lit)
  %cond = select i1 %call9, i32 1, i32 0
  %add = add i32 %mul, %cond
  store i32 %add, ptr %v, align 4
  br label %do.body

do.body:                                          ; preds = %do.cond, %for.body
  %6 = load i32, ptr %v, align 4
  %and = and i32 %6, 255
  %conv = trunc i32 %and to i8
  store i8 %conv, ptr %ch, align 1
  %7 = load i32, ptr %v, align 4
  %shr = lshr i32 %7, 7
  store i32 %shr, ptr %v, align 4
  %8 = load i32, ptr %v, align 4
  %tobool = icmp ne i32 %8, 0
  br i1 %tobool, label %if.then10, label %if.end13

if.then10:                                        ; preds = %do.body
  %9 = load i8, ptr %ch, align 1
  %conv11 = zext i8 %9 to i32
  %or = or i32 %conv11, 128
  %conv12 = trunc i32 %or to i8
  store i8 %conv12, ptr %ch, align 1
  br label %if.end13

if.end13:                                         ; preds = %if.then10, %do.body
  %10 = load i8, ptr %ch, align 1
  %11 = load i32, ptr %len, align 4
  %inc14 = add nsw i32 %11, 1
  store i32 %inc14, ptr %len, align 4
  %idxprom15 = sext i32 %11 to i64
  %arrayidx16 = getelementptr inbounds [10000 x i8], ptr %buffer, i64 0, i64 %idxprom15
  store i8 %10, ptr %arrayidx16, align 1
  %12 = load i32, ptr %len, align 4
  %conv17 = sext i32 %12 to i64
  %cmp18 = icmp eq i64 %conv17, 10000
  br i1 %cmp18, label %if.then19, label %if.end22

if.then19:                                        ; preds = %if.end13
  %m_bout = getelementptr inbounds %"class.sat::drat", ptr %this1, i32 0, i32 5
  %13 = load ptr, ptr %m_bout, align 8
  %arraydecay = getelementptr inbounds [10000 x i8], ptr %buffer, i64 0, i64 0
  %14 = load i32, ptr %len, align 4
  %conv20 = sext i32 %14 to i64
  %call21 = call noundef nonnull align 8 dereferenceable(8) ptr @_ZNSo5writeEPKcl(ptr noundef nonnull align 8 dereferenceable(8) %13, ptr noundef %arraydecay, i64 noundef %conv20)
  store i32 0, ptr %len, align 4
  br label %if.end22

if.end22:                                         ; preds = %if.then19, %if.end13
  br label %do.cond

do.cond:                                          ; preds = %if.end22
  %15 = load i32, ptr %v, align 4
  %tobool23 = icmp ne i32 %15, 0
  br i1 %tobool23, label %do.body, label %do.end, !llvm.loop !8

do.end:                                           ; preds = %do.cond
  br label %for.inc

for.inc:                                          ; preds = %do.end
  %16 = load i32, ptr %i, align 4
  %inc24 = add i32 %16, 1
  store i32 %inc24, ptr %i, align 4
  br label %for.cond, !llvm.loop !9

for.end:                                          ; preds = %for.cond
  %17 = load i32, ptr %len, align 4
  %inc25 = add nsw i32 %17, 1
  store i32 %inc25, ptr %len, align 4
  %idxprom26 = sext i32 %17 to i64
  %arrayidx27 = getelementptr inbounds [10000 x i8], ptr %buffer, i64 0, i64 %idxprom26
  store i8 0, ptr %arrayidx27, align 1
  %m_bout28 = getelementptr inbounds %"class.sat::drat", ptr %this1, i32 0, i32 5
  %18 = load ptr, ptr %m_bout28, align 8
  %arraydecay29 = getelementptr inbounds [10000 x i8], ptr %buffer, i64 0, i64 0
  %19 = load i32, ptr %len, align 4
  %conv30 = sext i32 %19 to i64
  %call31 = call noundef nonnull align 8 dereferenceable(8) ptr @_ZNSo5writeEPKcl(ptr noundef nonnull align 8 dereferenceable(8) %18, ptr noundef %arraydecay29, i64 noundef %conv30)
  br label %return

return:                                           ; preds = %for.end, %if.else4
  ret void
}

; Function Attrs: mustprogress uwtable
define linkonce_odr hidden void @_ZN3sat6status7deletedEv(ptr noalias sret(%"class.sat::status") align 8 %agg.result) #5 comdat align 2 {
entry:
  %result.ptr = alloca ptr, align 8
  store ptr %agg.result, ptr %result.ptr, align 8
  call void @_ZN3sat6statusC2ENS0_2stEiPKNS_10proof_hintE(ptr noundef nonnull align 8 dereferenceable(16) %agg.result, i32 noundef 3, i32 noundef -1, ptr noundef null)
  ret void
}

; Function Attrs: mustprogress uwtable
define hidden void @_ZN3sat4drat3delENS_7literalES1_(ptr noundef nonnull align 8 dereferenceable(664) %this, i32 %l1.coerce, i32 %l2.coerce) #5 align 2 {
entry:
  %l1 = alloca %"class.sat::literal", align 4
  %l2 = alloca %"class.sat::literal", align 4
  %this.addr = alloca ptr, align 8
  %ls = alloca [2 x %"class.sat::literal"], align 4
  %agg.tmp = alloca %"class.sat::status", align 8
  %agg.tmp6 = alloca %"class.sat::status", align 8
  %agg.tmp10 = alloca %"class.sat::literal", align 4
  %agg.tmp11 = alloca %"class.sat::literal", align 4
  %agg.tmp12 = alloca %"class.sat::status", align 8
  %agg.tmp20 = alloca %"class.sat::status", align 8
  %coerce.dive = getelementptr inbounds %"class.sat::literal", ptr %l1, i32 0, i32 0
  store i32 %l1.coerce, ptr %coerce.dive, align 4
  %coerce.dive1 = getelementptr inbounds %"class.sat::literal", ptr %l2, i32 0, i32 0
  store i32 %l2.coerce, ptr %coerce.dive1, align 4
  store ptr %this, ptr %this.addr, align 8
  %this2 = load ptr, ptr %this.addr, align 8
  %m_stats = getelementptr inbounds %"class.sat::drat", ptr %this2, i32 0, i32 15
  %m_num_del = getelementptr inbounds %"struct.sat::drat::stats", ptr %m_stats, i32 0, i32 3
  %0 = load i32, ptr %m_num_del, align 4
  %inc = add i32 %0, 1
  store i32 %inc, ptr %m_num_del, align 4
  %arrayinit.begin = getelementptr inbounds [2 x %"class.sat::literal"], ptr %ls, i64 0, i64 0
  call void @llvm.memcpy.p0.p0.i64(ptr align 4 %arrayinit.begin, ptr align 4 %l1, i64 4, i1 false)
  %arrayinit.element = getelementptr inbounds %"class.sat::literal", ptr %arrayinit.begin, i64 1
  call void @llvm.memcpy.p0.p0.i64(ptr align 4 %arrayinit.element, ptr align 4 %l2, i64 4, i1 false)
  %m_out = getelementptr inbounds %"class.sat::drat", ptr %this2, i32 0, i32 4
  %1 = load ptr, ptr %m_out, align 8
  %tobool = icmp ne ptr %1, null
  br i1 %tobool, label %if.then, label %if.end

if.then:                                          ; preds = %entry
  %arraydecay = getelementptr inbounds [2 x %"class.sat::literal"], ptr %ls, i64 0, i64 0
  call void @_ZN3sat6status7deletedEv(ptr sret(%"class.sat::status") align 8 %agg.tmp)
  call void @_ZN3sat4drat4dumpEjPKNS_7literalENS_6statusE(ptr noundef nonnull align 8 dereferenceable(664) %this2, i32 noundef 2, ptr noundef %arraydecay, ptr noundef %agg.tmp)
  br label %if.end

if.end:                                           ; preds = %if.then, %entry
  %m_bout = getelementptr inbounds %"class.sat::drat", ptr %this2, i32 0, i32 5
  %2 = load ptr, ptr %m_bout, align 8
  %tobool3 = icmp ne ptr %2, null
  br i1 %tobool3, label %if.then4, label %if.end7

if.then4:                                         ; preds = %if.end
  %arraydecay5 = getelementptr inbounds [2 x %"class.sat::literal"], ptr %ls, i64 0, i64 0
  call void @_ZN3sat6status7deletedEv(ptr sret(%"class.sat::status") align 8 %agg.tmp6)
  call void @_ZN3sat4drat5bdumpEjPKNS_7literalENS_6statusE(ptr noundef nonnull align 8 dereferenceable(664) %this2, i32 noundef 2, ptr noundef %arraydecay5, ptr noundef %agg.tmp6)
  br label %if.end7

if.end7:                                          ; preds = %if.then4, %if.end
  %m_check = getelementptr inbounds %"class.sat::drat", ptr %this2, i32 0, i32 13
  %3 = load i8, ptr %m_check, align 1
  %tobool8 = trunc i8 %3 to i1
  br i1 %tobool8, label %if.then9, label %if.end15

if.then9:                                         ; preds = %if.end7
  call void @llvm.memcpy.p0.p0.i64(ptr align 4 %agg.tmp10, ptr align 4 %l1, i64 4, i1 false)
  call void @llvm.memcpy.p0.p0.i64(ptr align 4 %agg.tmp11, ptr align 4 %l2, i64 4, i1 false)
  call void @_ZN3sat6status7deletedEv(ptr sret(%"class.sat::status") align 8 %agg.tmp12)
  %coerce.dive13 = getelementptr inbounds %"class.sat::literal", ptr %agg.tmp10, i32 0, i32 0
  %4 = load i32, ptr %coerce.dive13, align 4
  %coerce.dive14 = getelementptr inbounds %"class.sat::literal", ptr %agg.tmp11, i32 0, i32 0
  %5 = load i32, ptr %coerce.dive14, align 4
  call void @_ZN3sat4drat6appendENS_7literalES1_NS_6statusE(ptr noundef nonnull align 8 dereferenceable(664) %this2, i32 %4, i32 %5, ptr noundef %agg.tmp12)
  br label %if.end15

if.end15:                                         ; preds = %if.then9, %if.end7
  %m_clause_eh = getelementptr inbounds %"class.sat::drat", ptr %this2, i32 0, i32 0
  %6 = load ptr, ptr %m_clause_eh, align 8
  %tobool16 = icmp ne ptr %6, null
  br i1 %tobool16, label %if.then17, label %if.end21

if.then17:                                        ; preds = %if.end15
  %m_clause_eh18 = getelementptr inbounds %"class.sat::drat", ptr %this2, i32 0, i32 0
  %7 = load ptr, ptr %m_clause_eh18, align 8
  %arraydecay19 = getelementptr inbounds [2 x %"class.sat::literal"], ptr %ls, i64 0, i64 0
  call void @_ZN3sat6status7deletedEv(ptr sret(%"class.sat::status") align 8 %agg.tmp20)
  %vtable = load ptr, ptr %7, align 8
  %vfn = getelementptr inbounds ptr, ptr %vtable, i64 2
  %8 = load ptr, ptr %vfn, align 8
  call void %8(ptr noundef nonnull align 8 dereferenceable(8) %7, i32 noundef 2, ptr noundef %arraydecay19, ptr noundef %agg.tmp20)
  br label %if.end21

if.end21:                                         ; preds = %if.then17, %if.end15
  ret void
}