; Function Attrs: mustprogress uwtable
define hidden void @_ZN3sat4drat3delENS_7literalES1_(ptr noundef nonnull align 8 dereferenceable(664) %this, i32 %l1.coerce, i32 %l2.coerce) local_unnamed_addr #3 align 2 {
entry:
  %buffer.i = alloca [10000 x i8], align 16
  %ls = alloca [2 x %"class.sat::literal"], align 4
  %agg.tmp = alloca %"class.sat::status", align 8
  %agg.tmp12 = alloca %"class.sat::status", align 8
  %agg.tmp20 = alloca %"class.sat::status", align 8
  %m_num_del = getelementptr inbounds i8, ptr %this, i64 660
  %0 = load i32, ptr %m_num_del, align 4
  %inc = add i32 %0, 1
  store i32 %inc, ptr %m_num_del, align 4
  store i32 %l1.coerce, ptr %ls, align 4
  %arrayinit.element = getelementptr inbounds i8, ptr %ls, i64 4
  store i32 %l2.coerce, ptr %arrayinit.element, align 4
  %m_out = getelementptr inbounds i8, ptr %this, i64 592
  %1 = load ptr, ptr %m_out, align 8
  %tobool.not = icmp eq ptr %1, null
  br i1 %tobool.not, label %if.end, label %if.then

if.then:                                          ; preds = %entry
  store i32 3, ptr %agg.tmp, align 8, !alias.scope !73
  %m_orig.i.i = getelementptr inbounds i8, ptr %agg.tmp, i64 4
  store i32 -1, ptr %m_orig.i.i, align 4, !alias.scope !73
  %m_hint.i.i = getelementptr inbounds i8, ptr %agg.tmp, i64 8
  store ptr null, ptr %m_hint.i.i, align 8, !alias.scope !73
  call void @_ZN3sat4drat4dumpEjPKNS_7literalENS_6statusE(ptr noundef nonnull align 8 dereferenceable(664) %this, i32 noundef 2, ptr noundef nonnull %ls, ptr noundef nonnull %agg.tmp)
  br label %if.end

if.end:                                           ; preds = %if.then, %entry
  %m_bout = getelementptr inbounds i8, ptr %this, i64 600
  %2 = load ptr, ptr %m_bout, align 8
  %tobool3.not = icmp eq ptr %2, null
  br i1 %tobool3.not, label %if.end7, label %if.end5.i

if.end5.i:                                        ; preds = %if.end
  call void @llvm.lifetime.start.p0(i64 10000, ptr nonnull %buffer.i)
  store i8 100, ptr %buffer.i, align 16
  br label %for.body.i

for.body.i:                                       ; preds = %for.inc.i, %if.end5.i
  %indvars.iv.i = phi i64 [ 0, %if.end5.i ], [ %indvars.iv.next.i, %for.inc.i ]
  %len.016.i = phi i32 [ 1, %if.end5.i ], [ %len.2.i, %for.inc.i ]
  %arrayidx7.i = getelementptr inbounds %"class.sat::literal", ptr %ls, i64 %indvars.iv.i
  %3 = load i32, ptr %arrayidx7.i, align 4
  br label %do.body.i

do.body.i:                                        ; preds = %do.cond.i, %for.body.i
  %len.1.i = phi i32 [ %len.016.i, %for.body.i ], [ %len.2.i, %do.cond.i ]
  %v.0.i = phi i32 [ %3, %for.body.i ], [ %shr.i, %do.cond.i ]
  %conv.i = trunc i32 %v.0.i to i8
  %shr.i = lshr i32 %v.0.i, 7
  %tobool.not.i = icmp ult i32 %v.0.i, 128
  %conv12.i = or i8 %conv.i, -128
  %ch.1.i = select i1 %tobool.not.i, i8 %conv.i, i8 %conv12.i
  %inc14.i = add nsw i32 %len.1.i, 1
  %idxprom15.i = sext i32 %len.1.i to i64
  %arrayidx16.i = getelementptr inbounds [10000 x i8], ptr %buffer.i, i64 0, i64 %idxprom15.i
  store i8 %ch.1.i, ptr %arrayidx16.i, align 1
  %cmp18.i = icmp eq i32 %inc14.i, 10000
  br i1 %cmp18.i, label %if.then19.i, label %do.cond.i

if.then19.i:                                      ; preds = %do.body.i
  %4 = load ptr, ptr %m_bout, align 8
  %call21.i = call noundef nonnull align 8 dereferenceable(8) ptr @_ZNSo5writeEPKcl(ptr noundef nonnull align 8 dereferenceable(8) %4, ptr noundef nonnull %buffer.i, i64 noundef 10000)
  br label %do.cond.i

do.cond.i:                                        ; preds = %if.then19.i, %do.body.i
  %len.2.i = phi i32 [ 0, %if.then19.i ], [ %inc14.i, %do.body.i ]
  br i1 %tobool.not.i, label %for.inc.i, label %do.body.i, !llvm.loop !9

for.inc.i:                                        ; preds = %do.cond.i
  %indvars.iv.next.i = add nuw nsw i64 %indvars.iv.i, 1
  %exitcond.not.i = icmp eq i64 %indvars.iv.next.i, 2
  br i1 %exitcond.not.i, label %_ZN3sat4drat5bdumpEjPKNS_7literalENS_6statusE.exit, label %for.body.i, !llvm.loop !10

_ZN3sat4drat5bdumpEjPKNS_7literalENS_6statusE.exit: ; preds = %for.inc.i
  %inc25.i = add nsw i32 %len.2.i, 1
  %idxprom26.i = sext i32 %len.2.i to i64
  %arrayidx27.i = getelementptr inbounds [10000 x i8], ptr %buffer.i, i64 0, i64 %idxprom26.i
  store i8 0, ptr %arrayidx27.i, align 1
  %5 = load ptr, ptr %m_bout, align 8
  %conv30.i = sext i32 %inc25.i to i64
  %call31.i = call noundef nonnull align 8 dereferenceable(8) ptr @_ZNSo5writeEPKcl(ptr noundef nonnull align 8 dereferenceable(8) %5, ptr noundef nonnull %buffer.i, i64 noundef %conv30.i)
  call void @llvm.lifetime.end.p0(i64 10000, ptr nonnull %buffer.i)
  br label %if.end7

if.end7:                                          ; preds = %_ZN3sat4drat5bdumpEjPKNS_7literalENS_6statusE.exit, %if.end
  %m_check = getelementptr inbounds i8, ptr %this, i64 643
  %6 = load i8, ptr %m_check, align 1
  %7 = and i8 %6, 1
  %tobool8.not = icmp eq i8 %7, 0
  br i1 %tobool8.not, label %if.end15, label %if.then9

if.then9:                                         ; preds = %if.end7
  store i32 3, ptr %agg.tmp12, align 8, !alias.scope !76
  %m_orig.i.i3 = getelementptr inbounds i8, ptr %agg.tmp12, i64 4
  store i32 -1, ptr %m_orig.i.i3, align 4, !alias.scope !76
  %m_hint.i.i4 = getelementptr inbounds i8, ptr %agg.tmp12, i64 8
  store ptr null, ptr %m_hint.i.i4, align 8, !alias.scope !76
  call void @_ZN3sat4drat6appendENS_7literalES1_NS_6statusE(ptr noundef nonnull align 8 dereferenceable(664) %this, i32 %l1.coerce, i32 %l2.coerce, ptr noundef nonnull %agg.tmp12)
  br label %if.end15

if.end15:                                         ; preds = %if.then9, %if.end7
  %8 = load ptr, ptr %this, align 8
  %tobool16.not = icmp eq ptr %8, null
  br i1 %tobool16.not, label %if.end21, label %if.then17

if.then17:                                        ; preds = %if.end15
  store i32 3, ptr %agg.tmp20, align 8, !alias.scope !79
  %m_orig.i.i5 = getelementptr inbounds i8, ptr %agg.tmp20, i64 4
  store i32 -1, ptr %m_orig.i.i5, align 4, !alias.scope !79
  %m_hint.i.i6 = getelementptr inbounds i8, ptr %agg.tmp20, i64 8
  store ptr null, ptr %m_hint.i.i6, align 8, !alias.scope !79
  %vtable = load ptr, ptr %8, align 8
  %vfn = getelementptr inbounds i8, ptr %vtable, i64 16
  %9 = load ptr, ptr %vfn, align 8
  call void %9(ptr noundef nonnull align 8 dereferenceable(8) %8, i32 noundef 2, ptr noundef nonnull %ls, ptr noundef nonnull %agg.tmp20)
  br label %if.end21

if.end21:                                         ; preds = %if.then17, %if.end15
  ret void
}